target datalayout = "e-m:e-p270:32:32-p271:32:32-p272:64:64-i64:64-i128:128-f80:128-n8:16:32:64-S128"
target triple = "x86_64-unknown-linux-gnu"

%"struct.arith::sls::ineq" = type <{ %class.vector.112, i32, [4 x i8], i64, i64, i32, [4 x i8] }>
%class.vector.112 = type { ptr }

; Function Attrs: mustprogress nounwind uwtable
define linkonce_odr hidden void @_ZN6vectorISt4pairIljELb1EjEC2Ev(ptr noundef nonnull align 8 dereferenceable(8) %this) unnamed_addr #4 comdat align 2 {
entry:
  %this.addr = alloca ptr, align 8
  store ptr %this, ptr %this.addr, align 8
  %this1 = load ptr, ptr %this.addr, align 8
  %m_data = getelementptr inbounds %class.vector.112, ptr %this1, i32 0, i32 0
  store ptr null, ptr %m_data, align 8
  ret void
}

; Function Attrs: mustprogress nounwind uwtable
define linkonce_odr hidden void @_ZN5arith3sls4ineqC2Ev(ptr noundef nonnull align 8 dereferenceable(36) %this) unnamed_addr #4 comdat align 2 {
entry:
  %this.addr = alloca ptr, align 8
  store ptr %this, ptr %this.addr, align 8
  %this1 = load ptr, ptr %this.addr, align 8
  %m_args = getelementptr inbounds %"struct.arith::sls::ineq", ptr %this1, i32 0, i32 0
  call void @_ZN6vectorISt4pairIljELb1EjEC2Ev(ptr noundef nonnull align 8 dereferenceable(8) %m_args) #3
  %m_op = getelementptr inbounds %"struct.arith::sls::ineq", ptr %this1, i32 0, i32 1
  store i32 1, ptr %m_op, align 8
  %m_var_to_flip = getelementptr inbounds %"struct.arith::sls::ineq", ptr %this1, i32 0, i32 5
  store i32 -1, ptr %m_var_to_flip, align 8
  ret void
}

; Function Attrs: mustprogress uwtable
define hidden noundef nonnull align 8 dereferenceable(36) ptr @_ZN5arith3sls8new_ineqENS0_9ineq_kindERKl(ptr noundef nonnull align 8 dereferenceable(97) %this, i32 noundef %op, ptr noundef nonnull align 8 dereferenceable(8) %bound) #5 align 2 {
entry:
  %this.addr = alloca ptr, align 8
  %op.addr = alloca i32, align 4
  %bound.addr = alloca ptr, align 8
  %i = alloca ptr, align 8
  store ptr %this, ptr %this.addr, align 8
  store i32 %op, ptr %op.addr, align 4
  store ptr %bound, ptr %bound.addr, align 8
  %call = call noalias noundef ptr @_ZN6memory8allocateEm(i64 noundef 40)
  call void @llvm.memset.p0.i64(ptr align 8 %call, i8 0, i64 40, i1 false)
  call void @_ZN5arith3sls4ineqC2Ev(ptr noundef nonnull align 8 dereferenceable(36) %call) #3
  store ptr %call, ptr %i, align 8
  %0 = load ptr, ptr %bound.addr, align 8
  %1 = load i64, ptr %0, align 8
  %2 = load ptr, ptr %i, align 8
  %m_bound = getelementptr inbounds %"struct.arith::sls::ineq", ptr %2, i32 0, i32 3
  store i64 %1, ptr %m_bound, align 8
  %3 = load i32, ptr %op.addr, align 4
  %4 = load ptr, ptr %i, align 8
  %m_op = getelementptr inbounds %"struct.arith::sls::ineq", ptr %4, i32 0, i32 1
  store i32 %3, ptr %m_op, align 8
  %5 = load ptr, ptr %i, align 8
  ret ptr %5
}