; Function Attrs: mustprogress uwtable
define hidden noalias noundef nonnull align 8 dereferenceable(36) ptr @_ZN5arith3sls8new_ineqENS0_9ineq_kindERKl(ptr nocapture noundef nonnull readnone align 8 dereferenceable(97) %this, i32 noundef %op, ptr nocapture noundef nonnull readonly align 8 dereferenceable(8) %bound) local_unnamed_addr #5 align 2 {
entry:
  %call = tail call noalias noundef ptr @_ZN6memory8allocateEm(i64 noundef 40)
  %m_op.i = getelementptr inbounds i8, ptr %call, i64 8
  tail call void @llvm.memset.p0.i64(ptr noundef nonnull align 8 dereferenceable(40) %call, i8 0, i64 40, i1 false)
  %m_var_to_flip.i = getelementptr inbounds i8, ptr %call, i64 32
  store i32 -1, ptr %m_var_to_flip.i, align 8
  %0 = load i64, ptr %bound, align 8
  %m_bound = getelementptr inbounds i8, ptr %call, i64 16
  store i64 %0, ptr %m_bound, align 8
  store i32 %op, ptr %m_op.i, align 8
  ret ptr %call
}